target datalayout = "e-m:e-p270:32:32-p271:32:32-p272:64:64-i64:64-i128:128-f80:128-n8:16:32:64-S128"
target triple = "x86_64-pc-linux-gnu"

%struct.archive_read_filter_vtable = type { ptr, ptr, ptr }
%struct.archive_read_filter = type { i64, ptr, ptr, ptr, ptr, ptr, ptr, i32, i32, i32, ptr, i64, ptr, i64, ptr, i64, ptr, i64, i8, i8, i8 }
%struct.archive_read = type { %struct.archive, ptr, i32, i64, i64, %struct.archive_read_client, [16 x %struct.archive_read_filter_bidder], ptr, i32, i64, i32, i32, [16 x %struct.archive_format_descriptor], ptr, ptr, ptr, %struct.anon }
%struct.archive = type { i32, i32, ptr, i32, ptr, i32, i32, ptr, %struct.archive_string, ptr, i32, i32, ptr, ptr, i64, i64, i64, i8, i64 }
%struct.archive_string = type { ptr, i64, i64 }
%struct.archive_read_client = type { ptr, ptr, ptr, ptr, ptr, ptr, i32, i32, i64, ptr }
%struct.archive_read_filter_bidder = type { ptr, ptr, ptr }
%struct.archive_format_descriptor = type { ptr, ptr, ptr, ptr, ptr, ptr, ptr, ptr, ptr, ptr, ptr }
%struct.anon = type { ptr, ptr, i32, ptr, ptr }
%struct.uudecode = type { i64, ptr, i64, i64, ptr, i32, i32, i32, ptr }

@.str = private unnamed_addr constant [3 x i8] c"uu\00", align 1
@.str.8 = private unnamed_addr constant [33 x i8] c"Can't allocate data for uudecode\00", align 1
@uudecode_reader_vtable = internal constant %struct.archive_read_filter_vtable { ptr @uudecode_filter_read, ptr @uudecode_filter_close, ptr @uudecode_read_header }, align 8

; Function Attrs: nounwind uwtable
define internal i32 @uudecode_bidder_init(ptr noundef %0) #0 {
  %2 = alloca i32, align 4
  %3 = alloca ptr, align 8
  %4 = alloca ptr, align 8
  %5 = alloca ptr, align 8
  %6 = alloca ptr, align 8
  %7 = alloca i32, align 4
  store ptr %0, ptr %3, align 8, !tbaa !13
  call void @llvm.lifetime.start.p0(i64 8, ptr %4) #8
  call void @llvm.lifetime.start.p0(i64 8, ptr %5) #8
  call void @llvm.lifetime.start.p0(i64 8, ptr %6) #8
  %8 = load ptr, ptr %3, align 8, !tbaa !13
  %9 = getelementptr inbounds nuw %struct.archive_read_filter, ptr %8, i32 0, i32 7
  store i32 7, ptr %9, align 8, !tbaa !25
  %10 = load ptr, ptr %3, align 8, !tbaa !13
  %11 = getelementptr inbounds nuw %struct.archive_read_filter, ptr %10, i32 0, i32 6
  store ptr @.str, ptr %11, align 8, !tbaa !28
  %12 = call noalias ptr @calloc(i64 noundef 1, i64 noundef 64) #10
  store ptr %12, ptr %4, align 8, !tbaa !29
  %13 = call noalias ptr @malloc(i64 noundef 65536) #11
  store ptr %13, ptr %5, align 8, !tbaa !31
  %14 = call noalias ptr @malloc(i64 noundef 1024) #11
  store ptr %14, ptr %6, align 8, !tbaa !31
  %15 = load ptr, ptr %4, align 8, !tbaa !29
  %16 = icmp eq ptr %15, null
  br i1 %16, label %23, label %17

17:                                               ; preds = %1
  %18 = load ptr, ptr %5, align 8, !tbaa !31
  %19 = icmp eq ptr %18, null
  br i1 %19, label %23, label %20

20:                                               ; preds = %17
  %21 = load ptr, ptr %6, align 8, !tbaa !31
  %22 = icmp eq ptr %21, null
  br i1 %22, label %23, label %31

23:                                               ; preds = %20, %17, %1
  %24 = load ptr, ptr %3, align 8, !tbaa !13
  %25 = getelementptr inbounds nuw %struct.archive_read_filter, ptr %24, i32 0, i32 3
  %26 = load ptr, ptr %25, align 8, !tbaa !32
  %27 = getelementptr inbounds nuw %struct.archive_read, ptr %26, i32 0, i32 0
  call void (ptr, i32, ptr, ...) @archive_set_error(ptr noundef %27, i32 noundef 12, ptr noundef @.str.8)
  %28 = load ptr, ptr %4, align 8, !tbaa !29
  call void @free(ptr noundef %28) #8
  %29 = load ptr, ptr %5, align 8, !tbaa !31
  call void @free(ptr noundef %29) #8
  %30 = load ptr, ptr %6, align 8, !tbaa !31
  call void @free(ptr noundef %30) #8
  store i32 -30, ptr %2, align 4
  store i32 1, ptr %7, align 4
  br label %53

31:                                               ; preds = %20
  %32 = load ptr, ptr %4, align 8, !tbaa !29
  %33 = load ptr, ptr %3, align 8, !tbaa !13
  %34 = getelementptr inbounds nuw %struct.archive_read_filter, ptr %33, i32 0, i32 5
  store ptr %32, ptr %34, align 8, !tbaa !33
  %35 = load ptr, ptr %6, align 8, !tbaa !31
  %36 = load ptr, ptr %4, align 8, !tbaa !29
  %37 = getelementptr inbounds nuw %struct.uudecode, ptr %36, i32 0, i32 1
  store ptr %35, ptr %37, align 8, !tbaa !34
  %38 = load ptr, ptr %4, align 8, !tbaa !29
  %39 = getelementptr inbounds nuw %struct.uudecode, ptr %38, i32 0, i32 2
  store i64 0, ptr %39, align 8, !tbaa !36
  %40 = load ptr, ptr %4, align 8, !tbaa !29
  %41 = getelementptr inbounds nuw %struct.uudecode, ptr %40, i32 0, i32 3
  store i64 1024, ptr %41, align 8, !tbaa !37
  %42 = load ptr, ptr %5, align 8, !tbaa !31
  %43 = load ptr, ptr %4, align 8, !tbaa !29
  %44 = getelementptr inbounds nuw %struct.uudecode, ptr %43, i32 0, i32 4
  store ptr %42, ptr %44, align 8, !tbaa !38
  %45 = load ptr, ptr %4, align 8, !tbaa !29
  %46 = getelementptr inbounds nuw %struct.uudecode, ptr %45, i32 0, i32 5
  store i32 0, ptr %46, align 8, !tbaa !39
  %47 = load ptr, ptr %4, align 8, !tbaa !29
  %48 = getelementptr inbounds nuw %struct.uudecode, ptr %47, i32 0, i32 7
  store i32 0, ptr %48, align 8, !tbaa !40
  %49 = load ptr, ptr %4, align 8, !tbaa !29
  %50 = getelementptr inbounds nuw %struct.uudecode, ptr %49, i32 0, i32 8
  store ptr null, ptr %50, align 8, !tbaa !41
  %51 = load ptr, ptr %3, align 8, !tbaa !13
  %52 = getelementptr inbounds nuw %struct.archive_read_filter, ptr %51, i32 0, i32 4
  store ptr @uudecode_reader_vtable, ptr %52, align 8, !tbaa !42
  store i32 0, ptr %2, align 4
  store i32 1, ptr %7, align 4
  br label %53

53:                                               ; preds = %31, %23
  call void @llvm.lifetime.end.p0(i64 8, ptr %6) #8
  call void @llvm.lifetime.end.p0(i64 8, ptr %5) #8
  call void @llvm.lifetime.end.p0(i64 8, ptr %4) #8
  %54 = load i32, ptr %2, align 4
  ret i32 %54
}