; Function Attrs: nounwind uwtable
define internal range(i32 -30, 1) i32 @uudecode_bidder_init(ptr noundef captures(none) initializes((48, 60)) %0) #0 {
  %2 = getelementptr inbounds nuw i8, ptr %0, i64 56
  store i32 7, ptr %2, align 8, !tbaa !15
  %3 = getelementptr inbounds nuw i8, ptr %0, i64 48
  store ptr @.str, ptr %3, align 8, !tbaa !22
  %4 = tail call noalias dereferenceable_or_null(64) ptr @calloc(i64 noundef 1, i64 noundef 64) #11
  %5 = tail call noalias dereferenceable_or_null(65536) ptr @malloc(i64 noundef 65536) #12
  %6 = tail call noalias dereferenceable_or_null(1024) ptr @malloc(i64 noundef 1024) #12
  %7 = icmp eq ptr %4, null
  %8 = icmp eq ptr %5, null
  %or.cond = or i1 %7, %8
  %9 = icmp eq ptr %6, null
  %or.cond3 = or i1 %or.cond, %9
  br i1 %or.cond3, label %10, label %13

10:                                               ; preds = %1
  %11 = getelementptr inbounds nuw i8, ptr %0, i64 24
  %12 = load ptr, ptr %11, align 8, !tbaa !23
  tail call void (ptr, i32, ptr, ...) @archive_set_error(ptr noundef %12, i32 noundef 12, ptr noundef nonnull @.str.8) #10
  tail call void @free(ptr noundef %4) #10
  tail call void @free(ptr noundef %5) #10
  tail call void @free(ptr noundef %6) #10
  br label %19

13:                                               ; preds = %1
  %14 = getelementptr inbounds nuw i8, ptr %0, i64 40
  store ptr %4, ptr %14, align 8, !tbaa !24
  %15 = getelementptr inbounds nuw i8, ptr %4, i64 8
  store ptr %6, ptr %15, align 8, !tbaa !25
  %16 = getelementptr inbounds nuw i8, ptr %4, i64 24
  store i64 1024, ptr %16, align 8, !tbaa !27
  %17 = getelementptr inbounds nuw i8, ptr %4, i64 32
  store ptr %5, ptr %17, align 8, !tbaa !28
  %18 = getelementptr inbounds nuw i8, ptr %0, i64 32
  store ptr @uudecode_reader_vtable, ptr %18, align 8, !tbaa !29
  br label %19

19:                                               ; preds = %13, %10
  %.0 = phi i32 [ -30, %10 ], [ 0, %13 ]
  ret i32 %.0
}